; Function Attrs: mustprogress nounwind uwtable
define dso_local void @_ZN5vcpkg24AttemptDiagnosticContext6handleEv(ptr noundef nonnull align 8 captures(none) dereferenceable(40) %0) local_unnamed_addr #13 align 2 personality ptr @__gxx_personality_v0 {
  %2 = getelementptr inbounds nuw i8, ptr %0, i64 16
  %3 = load ptr, ptr %2, align 8, !tbaa !83
  %4 = getelementptr inbounds nuw i8, ptr %0, i64 24
  %5 = load ptr, ptr %4, align 8, !tbaa !61
  %.not.i.i = icmp eq ptr %5, %3
  br i1 %.not.i.i, label %_ZNSt6vectorIN5vcpkg14DiagnosticLineESaIS1_EE5clearEv.exit, label %.lr.ph.i.i.i.i.i

.lr.ph.i.i.i.i.i:                                 ; preds = %1, %_ZSt8_DestroyIN5vcpkg14DiagnosticLineEEvPT_.exit.i.i.i.i.i
  %.05.i.i.i.i.i = phi ptr [ %28, %_ZSt8_DestroyIN5vcpkg14DiagnosticLineEEvPT_.exit.i.i.i.i.i ], [ %3, %1 ]
  %6 = getelementptr inbounds nuw i8, ptr %.05.i.i.i.i.i, i64 56
  %7 = load ptr, ptr %6, align 8, !tbaa !12
  %8 = getelementptr inbounds nuw i8, ptr %.05.i.i.i.i.i, i64 72
  %9 = icmp eq ptr %7, %8
  br i1 %9, label %_ZNKSt7__cxx1112basic_stringIcSt11char_traitsIcESaIcEE11_M_is_localEv.exit.thread.i.i.i.i.i.i.i.i.i.i, label %_ZNKSt7__cxx1112basic_stringIcSt11char_traitsIcESaIcEE11_M_is_localEv.exit.i.i.i.i.i.i.i.i.i.i

_ZNKSt7__cxx1112basic_stringIcSt11char_traitsIcESaIcEE11_M_is_localEv.exit.thread.i.i.i.i.i.i.i.i.i.i: ; preds = %.lr.ph.i.i.i.i.i
  %10 = getelementptr inbounds nuw i8, ptr %.05.i.i.i.i.i, i64 64
  %11 = load i64, ptr %10, align 8, !tbaa !17
  %12 = icmp ult i64 %11, 16
  tail call void @llvm.assume(i1 %12)
  br label %_ZN5vcpkg15LocalizedStringD2Ev.exit.i.i.i.i.i.i.i

_ZNKSt7__cxx1112basic_stringIcSt11char_traitsIcESaIcEE11_M_is_localEv.exit.i.i.i.i.i.i.i.i.i.i: ; preds = %.lr.ph.i.i.i.i.i
  %13 = load i64, ptr %8, align 8, !tbaa !18
  %14 = add i64 %13, 1
  tail call void @_ZdlPvm(ptr noundef %7, i64 noundef %14) #28
  br label %_ZN5vcpkg15LocalizedStringD2Ev.exit.i.i.i.i.i.i.i

_ZN5vcpkg15LocalizedStringD2Ev.exit.i.i.i.i.i.i.i: ; preds = %_ZNKSt7__cxx1112basic_stringIcSt11char_traitsIcESaIcEE11_M_is_localEv.exit.i.i.i.i.i.i.i.i.i.i, %_ZNKSt7__cxx1112basic_stringIcSt11char_traitsIcESaIcEE11_M_is_localEv.exit.thread.i.i.i.i.i.i.i.i.i.i
  %15 = getelementptr inbounds nuw i8, ptr %.05.i.i.i.i.i, i64 8
  %16 = load i8, ptr %15, align 8, !tbaa !39, !range !40, !noundef !41
  %17 = trunc nuw i8 %16 to i1
  br i1 %17, label %18, label %_ZSt8_DestroyIN5vcpkg14DiagnosticLineEEvPT_.exit.i.i.i.i.i

18:                                               ; preds = %_ZN5vcpkg15LocalizedStringD2Ev.exit.i.i.i.i.i.i.i
  %19 = getelementptr inbounds nuw i8, ptr %.05.i.i.i.i.i, i64 16
  %20 = load ptr, ptr %19, align 8, !tbaa !12
  %21 = getelementptr inbounds nuw i8, ptr %.05.i.i.i.i.i, i64 32
  %22 = icmp eq ptr %20, %21
  br i1 %22, label %_ZNKSt7__cxx1112basic_stringIcSt11char_traitsIcESaIcEE11_M_is_localEv.exit.thread.i.i.i2.i.i.i.i.i.i.i, label %_ZNKSt7__cxx1112basic_stringIcSt11char_traitsIcESaIcEE11_M_is_localEv.exit.i.i.i1.i.i.i.i.i.i.i

_ZNKSt7__cxx1112basic_stringIcSt11char_traitsIcESaIcEE11_M_is_localEv.exit.thread.i.i.i2.i.i.i.i.i.i.i: ; preds = %18
  %23 = getelementptr inbounds nuw i8, ptr %.05.i.i.i.i.i, i64 24
  %24 = load i64, ptr %23, align 8, !tbaa !17
  %25 = icmp ult i64 %24, 16
  tail call void @llvm.assume(i1 %25)
  br label %_ZSt8_DestroyIN5vcpkg14DiagnosticLineEEvPT_.exit.i.i.i.i.i

_ZNKSt7__cxx1112basic_stringIcSt11char_traitsIcESaIcEE11_M_is_localEv.exit.i.i.i1.i.i.i.i.i.i.i: ; preds = %18
  %26 = load i64, ptr %21, align 8, !tbaa !18
  %27 = add i64 %26, 1
  tail call void @_ZdlPvm(ptr noundef %20, i64 noundef %27) #28
  br label %_ZSt8_DestroyIN5vcpkg14DiagnosticLineEEvPT_.exit.i.i.i.i.i

_ZSt8_DestroyIN5vcpkg14DiagnosticLineEEvPT_.exit.i.i.i.i.i: ; preds = %_ZNKSt7__cxx1112basic_stringIcSt11char_traitsIcESaIcEE11_M_is_localEv.exit.i.i.i1.i.i.i.i.i.i.i, %_ZNKSt7__cxx1112basic_stringIcSt11char_traitsIcESaIcEE11_M_is_localEv.exit.thread.i.i.i2.i.i.i.i.i.i.i, %_ZN5vcpkg15LocalizedStringD2Ev.exit.i.i.i.i.i.i.i
  %28 = getelementptr inbounds nuw i8, ptr %.05.i.i.i.i.i, i64 88
  %.not.i.i.i.i.i = icmp eq ptr %28, %5
  br i1 %.not.i.i.i.i.i, label %_ZSt8_DestroyIPN5vcpkg14DiagnosticLineES1_EvT_S3_RSaIT0_E.exit.i.i, label %.lr.ph.i.i.i.i.i, !llvm.loop !84

_ZSt8_DestroyIPN5vcpkg14DiagnosticLineES1_EvT_S3_RSaIT0_E.exit.i.i: ; preds = %_ZSt8_DestroyIN5vcpkg14DiagnosticLineEEvPT_.exit.i.i.i.i.i
  store ptr %3, ptr %4, align 8, !tbaa !61
  br label %_ZNSt6vectorIN5vcpkg14DiagnosticLineESaIS1_EE5clearEv.exit

_ZNSt6vectorIN5vcpkg14DiagnosticLineESaIS1_EE5clearEv.exit: ; preds = %1, %_ZSt8_DestroyIPN5vcpkg14DiagnosticLineES1_EvT_S3_RSaIT0_E.exit.i.i
  ret void
}